; Function Attrs: nounwind uwtable
define hidden void @_glfwIconifyWindowNull(ptr noundef %0) local_unnamed_addr #0 {
  %2 = load ptr, ptr getelementptr inbounds nuw (i8, ptr @_glfw, i64 142760), align 8, !tbaa !82
  %3 = icmp eq ptr %2, %0
  br i1 %3, label %4, label %5

4:                                                ; preds = %1
  store ptr null, ptr getelementptr inbounds nuw (i8, ptr @_glfw, i64 142760), align 8, !tbaa !82
  tail call void @_glfwInputWindowFocus(ptr noundef %0, i32 noundef 0) #11
  br label %5

5:                                                ; preds = %4, %1
  %6 = getelementptr inbounds nuw i8, ptr %0, i64 3388
  %7 = load i32, ptr %6, align 4, !tbaa !153
  %.not = icmp eq i32 %7, 0
  br i1 %.not, label %8, label %releaseMonitor.exit

8:                                                ; preds = %5
  store i32 1, ptr %6, align 4, !tbaa !153
  tail call void @_glfwInputWindowIconify(ptr noundef nonnull %0, i32 noundef 1) #11
  %9 = getelementptr inbounds nuw i8, ptr %0, i64 80
  %10 = load ptr, ptr %9, align 8, !tbaa !3
  %.not7 = icmp eq ptr %10, null
  br i1 %.not7, label %releaseMonitor.exit, label %11

11:                                               ; preds = %8
  %12 = getelementptr inbounds nuw i8, ptr %10, i64 144
  %13 = load ptr, ptr %12, align 8, !tbaa !154
  %.not.i = icmp eq ptr %13, %0
  br i1 %.not.i, label %14, label %releaseMonitor.exit

14:                                               ; preds = %11
  tail call void @_glfwInputMonitorWindow(ptr noundef nonnull %10, ptr noundef null) #11
  br label %releaseMonitor.exit

releaseMonitor.exit:                              ; preds = %14, %11, %8, %5
  ret void
}